target datalayout = "e-m:e-p270:32:32-p271:32:32-p272:64:64-i64:64-i128:128-f80:128-n8:16:32:64-S128"
target triple = "x86_64-pc-linux-gnu"

%struct.SDL_Process = type { i8, i8, i32, i32, ptr }

@.str = private unnamed_addr constant [26 x i8] c"Parameter '%s' is invalid\00", align 1
@.str.8 = private unnamed_addr constant [8 x i8] c"process\00", align 1

; Function Attrs: nounwind uwtable
define hidden zeroext i1 @SDL_WaitProcess_REAL(ptr noundef %0, i1 noundef zeroext %1, ptr noundef %2) #0 {
  %4 = alloca i1, align 1
  %5 = alloca ptr, align 8
  %6 = alloca i8, align 1
  %7 = alloca ptr, align 8
  store ptr %0, ptr %5, align 8
  %8 = zext i1 %1 to i8
  store i8 %8, ptr %6, align 1
  store ptr %2, ptr %7, align 8
  %9 = load ptr, ptr %5, align 8
  %10 = icmp ne ptr %9, null
  br i1 %10, label %13, label %11

11:                                               ; preds = %3
  %12 = call zeroext i1 (ptr, ...) @SDL_SetError_REAL(ptr noundef @.str, ptr noundef @.str.8)
  store i1 %12, ptr %4, align 1
  br label %54

13:                                               ; preds = %3
  %14 = load ptr, ptr %5, align 8
  %15 = getelementptr inbounds nuw %struct.SDL_Process, ptr %14, i32 0, i32 0
  %16 = load i8, ptr %15, align 8, !range !3, !noundef !4
  %17 = trunc i8 %16 to i1
  br i1 %17, label %27, label %18

18:                                               ; preds = %13
  %19 = load ptr, ptr %7, align 8
  %20 = icmp ne ptr %19, null
  br i1 %20, label %21, label %26

21:                                               ; preds = %18
  %22 = load ptr, ptr %5, align 8
  %23 = getelementptr inbounds nuw %struct.SDL_Process, ptr %22, i32 0, i32 2
  %24 = load i32, ptr %23, align 4
  %25 = load ptr, ptr %7, align 8
  store i32 %24, ptr %25, align 4
  br label %26

26:                                               ; preds = %21, %18
  store i1 true, ptr %4, align 1
  br label %54

27:                                               ; preds = %13
  %28 = load ptr, ptr %5, align 8
  %29 = load i8, ptr %6, align 1, !range !3, !noundef !4
  %30 = trunc i8 %29 to i1
  %31 = load ptr, ptr %5, align 8
  %32 = getelementptr inbounds nuw %struct.SDL_Process, ptr %31, i32 0, i32 2
  %33 = call zeroext i1 @SDL_SYS_WaitProcess(ptr noundef %28, i1 noundef zeroext %30, ptr noundef %32)
  br i1 %33, label %34, label %53

34:                                               ; preds = %27
  %35 = load ptr, ptr %5, align 8
  %36 = getelementptr inbounds nuw %struct.SDL_Process, ptr %35, i32 0, i32 0
  store i8 0, ptr %36, align 8
  %37 = load ptr, ptr %7, align 8
  %38 = icmp ne ptr %37, null
  br i1 %38, label %39, label %52

39:                                               ; preds = %34
  %40 = load ptr, ptr %5, align 8
  %41 = getelementptr inbounds nuw %struct.SDL_Process, ptr %40, i32 0, i32 1
  %42 = load i8, ptr %41, align 1, !range !3, !noundef !4
  %43 = trunc i8 %42 to i1
  br i1 %43, label %44, label %47

44:                                               ; preds = %39
  %45 = load ptr, ptr %5, align 8
  %46 = getelementptr inbounds nuw %struct.SDL_Process, ptr %45, i32 0, i32 2
  store i32 0, ptr %46, align 4
  br label %47

47:                                               ; preds = %44, %39
  %48 = load ptr, ptr %5, align 8
  %49 = getelementptr inbounds nuw %struct.SDL_Process, ptr %48, i32 0, i32 2
  %50 = load i32, ptr %49, align 4
  %51 = load ptr, ptr %7, align 8
  store i32 %50, ptr %51, align 4
  br label %52

52:                                               ; preds = %47, %34
  store i1 true, ptr %4, align 1
  br label %54

53:                                               ; preds = %27
  store i1 false, ptr %4, align 1
  br label %54

54:                                               ; preds = %53, %52, %26, %11
  %55 = load i1, ptr %4, align 1
  ret i1 %55
}