; Function Attrs: nounwind uwtable
define hidden zeroext i1 @SDL_WaitProcess_REAL(ptr noundef %0, i1 noundef zeroext %1, ptr noundef writeonly captures(address_is_null) %2) local_unnamed_addr #0 {
  %.not = icmp eq ptr %0, null
  br i1 %.not, label %4, label %6

4:                                                ; preds = %3
  %5 = tail call zeroext i1 (ptr, ...) @SDL_SetError_REAL(ptr noundef nonnull @.str, ptr noundef nonnull @.str.8) #3
  br label %24

6:                                                ; preds = %3
  %7 = load i8, ptr %0, align 8, !range !3, !noundef !4
  %8 = trunc nuw i8 %7 to i1
  br i1 %8, label %13, label %9

9:                                                ; preds = %6
  %.not16 = icmp eq ptr %2, null
  br i1 %.not16, label %24, label %10

10:                                               ; preds = %9
  %11 = getelementptr inbounds nuw i8, ptr %0, i64 4
  %12 = load i32, ptr %11, align 4
  store i32 %12, ptr %2, align 4
  br label %24

13:                                               ; preds = %6
  %14 = getelementptr inbounds nuw i8, ptr %0, i64 4
  %15 = tail call zeroext i1 @SDL_SYS_WaitProcess(ptr noundef nonnull %0, i1 noundef zeroext %1, ptr noundef nonnull %14) #3
  br i1 %15, label %16, label %24

16:                                               ; preds = %13
  store i8 0, ptr %0, align 8
  %.not17 = icmp eq ptr %2, null
  br i1 %.not17, label %24, label %17

17:                                               ; preds = %16
  %18 = getelementptr inbounds nuw i8, ptr %0, i64 1
  %19 = load i8, ptr %18, align 1, !range !3, !noundef !4
  %20 = trunc nuw i8 %19 to i1
  br i1 %20, label %21, label %._crit_edge

._crit_edge:                                      ; preds = %17
  %.pre = load i32, ptr %14, align 4
  br label %22

21:                                               ; preds = %17
  store i32 0, ptr %14, align 4
  br label %22

22:                                               ; preds = %._crit_edge, %21
  %23 = phi i32 [ %.pre, %._crit_edge ], [ 0, %21 ]
  store i32 %23, ptr %2, align 4
  br label %24

24:                                               ; preds = %13, %16, %22, %9, %10, %4
  %.0 = phi i1 [ %5, %4 ], [ true, %10 ], [ true, %9 ], [ true, %22 ], [ true, %16 ], [ false, %13 ]
  ret i1 %.0
}